(iclothing_models.Models
Model_Pants_Skel_New
p0
(dp1
S'symmetric'
p2
I01
sS'scalar_params'
p3
(lp4
F60.530983801686226
asS'vertices'
p5
(lp6
(I215
I302
tp7
a(I123
I293
tp8
a(I225
I348
tp9
a(I468
I378
tp10
a(I129
I369
tp11
asb.