(iclothing_models.Models
Model_Pants_Skel_New
p0
(dp1
S'symmetric'
p2
I01
sS'scalar_params'
p3
(lp4
F56.462376853972415
asS'vertices'
p5
(lp6
(I260
I298
tp7
a(I192
I298
tp8
a(I259
I345
tp9
a(I413
I391
tp10
a(I180
I371
tp11
asb.