(iclothing_models.Models
Model_Shirt_Skel_Restricted
p0
(dp1
S'symmetric'
p2
I01
sS'scalar_params'
p3
(lp4
F113.35784048754634
aF49.03060268852505
aF1.0471975511965976
asS'vertices'
p5
(lp6
(I392
I329
tp7
a(I389
I162
tp8
a(I370
I157
tp9
a(I346
I196
tp10
a(I326
I168
tp11
a(I348
I329
tp12
asb.