(iclothing_models.Models
Model_Tee_Skel_No_Skew
p0
(dp1
S'symmetric'
p2
I01
sS'scalar_params'
p3
(lp4
F42.941821107167776
asS'vertices'
p5
(lp6
(I335
I394
tp7
a(I326
I224
tp8
a(I293
I213
tp9
a(I262
I257
tp10
a(I258
I230
tp11
a(I220
I273
tp12
a(I269
I397
tp13
asb.