(iclothing_models.Models
Model_Tee_Skel_No_Skew
p0
(dp1
S'symmetric'
p2
I01
sS'scalar_params'
p3
(lp4
F95.707888912043188
asS'vertices'
p5
(lp6
(I481
I406
tp7
a(I241
I253
tp8
a(I195
I278
tp9
a(I220
I379
tp10
a(I163
I347
tp11
a(I190
I438
tp12
a(I417
I505
tp13
asb.