(iclothing_models.Models
Point_Model_Contour_Only_Asymm
p0
(dp1
S'scalar_params'
p2
(lp3
sS'num_variable_pts'
p4
I5
sS'vertices'
p5
(lp6
(I1080
I605
tp7
a(I981
I783
tp8
a(I817
I537
tp9
a(I1406
I538
tp10
a(I1203
I806
tp11
asb.