(iModels
Model_Pants_Contour_Only
p0
(dp1
S'scalar_params'
p2
(lp3
sS'num_variable_pts'
p4
I7
sS'vertices'
p5
(lp6
(I478
I339
tp7
a(I466
I414
tp8
a(I104
I364
tp9
a(I118
I204
tp10
a(I474
I183
tp11
a(I475
I264
tp12
a(I304
I304
tp13
asb.