(iModels
Model_Shirt_Skel_Less_Restricted
p0
(dp1
S'symmetric'
p2
I01
sS'scalar_params'
p3
(lp4
F58.821764679410968
asS'vertices'
p5
(lp6
(I399
I344
tp7
a(I392
I163
tp8
a(I359
I155
tp9
a(I326
I217
tp10
a(I323
I167
tp11
a(I226
I290
tp12
a(I331
I346
tp13
asb.