(iModels
Model_Shirt_Skel_Restricted
p0
(dp1
S'symmetric'
p2
I01
sS'scalar_params'
p3
(lp4
F116.46887996370532
aF33.941125496954278
aF0.62831853071795862
asS'vertices'
p5
(lp6
(I399
I286
tp7
a(I393
I151
tp8
a(I371
I147
tp9
a(I340
I185
tp10
a(I340
I160
tp11
a(I344
I288
tp12
asb.