(iModels
Model_Shirt_Skel_Less_Restricted
p0
(dp1
S'symmetric'
p2
I01
sS'scalar_params'
p3
(lp4
F30.463092423455635
asS'vertices'
p5
(lp6
(I399
I341
tp7
a(I384
I167
tp8
a(I363
I158
tp9
a(I328
I213
tp10
a(I330
I189
tp11
a(I283
I322
tp12
a(I339
I346
tp13
asb.