(iModels
Model_Shirt_Skel_New
p0
(dp1
S'symmetric'
p2
I01
sS'vertices'
p3
(lp4
(I399
I287
tp5
a(I390
I147
tp6
a(I374
I143
tp7
a(I340
I184
tp8
a(I338
I163
tp9
a(I235
I228
tp10
a(I226
I218
tp11
a(I346
I290
tp12
asb.