(iModels
Point_Model_Contour_Only_Asymm
p0
(dp1
S'scalar_params'
p2
(lp3
sS'num_variable_pts'
p4
I13
sS'vertices'
p5
(lp6
(I260
I415
tp7
a(I255
I273
tp8
a(I49
I310
tp9
a(I38
I288
tp10
a(I259
I207
tp11
a(I294
I192
tp12
a(I320
I197
tp13
a(I348
I185
tp14
a(I386
I197
tp15
a(I614
I272
tp16
a(I599
I295
tp17
a(I407
I268
tp18
a(I411
I406
tp19
asb.