(iModels
Point_Model_Contour_Only_Asymm
p0
(dp1
S'scalar_params'
p2
(lp3
sS'num_variable_pts'
p4
I13
sS'vertices'
p5
(lp6
(I261
I390
tp7
a(I268
I285
tp8
a(I235
I296
tp9
a(I215
I259
tp10
a(I263
I230
tp11
a(I303
I211
tp12
a(I323
I225
tp13
a(I345
I217
tp14
a(I383
I228
tp15
a(I438
I249
tp16
a(I426
I289
tp17
a(I392
I282
tp18
a(I404
I387
tp19
asb.