(iModels
Model_Tee_Skel
p0
(dp1
S'symmetric'
p2
I01
sS'scalar_params'
p3
(lp4
sS'vertices'
p5
(lp6
(I331
I391
tp7
a(I324
I227
tp8
a(I298
I214
tp9
a(I260
I263
tp10
a(I262
I226
tp11
a(I186
I294
tp12
a(I175
I272
tp13
a(I265
I393
tp14
asb.